target datalayout = "e-m:e-p270:32:32-p271:32:32-p272:64:64-i64:64-i128:128-f80:128-n8:16:32:64-S128"
target triple = "x86_64-pc-linux-gnu"

; Function Attrs: mustprogress nounwind uwtable
define internal noundef i64 @_ZN4LuauL6toUtf8EPcj(ptr noundef %0, i32 noundef %1) #2 {
  %3 = alloca i64, align 8
  %4 = alloca ptr, align 8
  %5 = alloca i32, align 4
  store ptr %0, ptr %4, align 8, !tbaa !11
  store i32 %1, ptr %5, align 4, !tbaa !4
  %6 = load i32, ptr %5, align 4, !tbaa !4
  %7 = icmp ult i32 %6, 128
  br i1 %7, label %8, label %13

8:                                                ; preds = %2
  %9 = load i32, ptr %5, align 4, !tbaa !4
  %10 = trunc i32 %9 to i8
  %11 = load ptr, ptr %4, align 8, !tbaa !11
  %12 = getelementptr inbounds i8, ptr %11, i64 0
  store i8 %10, ptr %12, align 1, !tbaa !34
  store i64 1, ptr %3, align 8
  br label %83

13:                                               ; preds = %2
  %14 = load i32, ptr %5, align 4, !tbaa !4
  %15 = icmp ult i32 %14, 2048
  br i1 %15, label %16, label %29

16:                                               ; preds = %13
  %17 = load i32, ptr %5, align 4, !tbaa !4
  %18 = lshr i32 %17, 6
  %19 = or i32 192, %18
  %20 = trunc i32 %19 to i8
  %21 = load ptr, ptr %4, align 8, !tbaa !11
  %22 = getelementptr inbounds i8, ptr %21, i64 0
  store i8 %20, ptr %22, align 1, !tbaa !34
  %23 = load i32, ptr %5, align 4, !tbaa !4
  %24 = and i32 %23, 63
  %25 = or i32 128, %24
  %26 = trunc i32 %25 to i8
  %27 = load ptr, ptr %4, align 8, !tbaa !11
  %28 = getelementptr inbounds i8, ptr %27, i64 1
  store i8 %26, ptr %28, align 1, !tbaa !34
  store i64 2, ptr %3, align 8
  br label %83

29:                                               ; preds = %13
  %30 = load i32, ptr %5, align 4, !tbaa !4
  %31 = icmp ult i32 %30, 65536
  br i1 %31, label %32, label %52

32:                                               ; preds = %29
  %33 = load i32, ptr %5, align 4, !tbaa !4
  %34 = lshr i32 %33, 12
  %35 = or i32 224, %34
  %36 = trunc i32 %35 to i8
  %37 = load ptr, ptr %4, align 8, !tbaa !11
  %38 = getelementptr inbounds i8, ptr %37, i64 0
  store i8 %36, ptr %38, align 1, !tbaa !34
  %39 = load i32, ptr %5, align 4, !tbaa !4
  %40 = lshr i32 %39, 6
  %41 = and i32 %40, 63
  %42 = or i32 128, %41
  %43 = trunc i32 %42 to i8
  %44 = load ptr, ptr %4, align 8, !tbaa !11
  %45 = getelementptr inbounds i8, ptr %44, i64 1
  store i8 %43, ptr %45, align 1, !tbaa !34
  %46 = load i32, ptr %5, align 4, !tbaa !4
  %47 = and i32 %46, 63
  %48 = or i32 128, %47
  %49 = trunc i32 %48 to i8
  %50 = load ptr, ptr %4, align 8, !tbaa !11
  %51 = getelementptr inbounds i8, ptr %50, i64 2
  store i8 %49, ptr %51, align 1, !tbaa !34
  store i64 3, ptr %3, align 8
  br label %83

52:                                               ; preds = %29
  %53 = load i32, ptr %5, align 4, !tbaa !4
  %54 = icmp ult i32 %53, 1114112
  br i1 %54, label %55, label %82

55:                                               ; preds = %52
  %56 = load i32, ptr %5, align 4, !tbaa !4
  %57 = lshr i32 %56, 18
  %58 = or i32 240, %57
  %59 = trunc i32 %58 to i8
  %60 = load ptr, ptr %4, align 8, !tbaa !11
  %61 = getelementptr inbounds i8, ptr %60, i64 0
  store i8 %59, ptr %61, align 1, !tbaa !34
  %62 = load i32, ptr %5, align 4, !tbaa !4
  %63 = lshr i32 %62, 12
  %64 = and i32 %63, 63
  %65 = or i32 128, %64
  %66 = trunc i32 %65 to i8
  %67 = load ptr, ptr %4, align 8, !tbaa !11
  %68 = getelementptr inbounds i8, ptr %67, i64 1
  store i8 %66, ptr %68, align 1, !tbaa !34
  %69 = load i32, ptr %5, align 4, !tbaa !4
  %70 = lshr i32 %69, 6
  %71 = and i32 %70, 63
  %72 = or i32 128, %71
  %73 = trunc i32 %72 to i8
  %74 = load ptr, ptr %4, align 8, !tbaa !11
  %75 = getelementptr inbounds i8, ptr %74, i64 2
  store i8 %73, ptr %75, align 1, !tbaa !34
  %76 = load i32, ptr %5, align 4, !tbaa !4
  %77 = and i32 %76, 63
  %78 = or i32 128, %77
  %79 = trunc i32 %78 to i8
  %80 = load ptr, ptr %4, align 8, !tbaa !11
  %81 = getelementptr inbounds i8, ptr %80, i64 3
  store i8 %79, ptr %81, align 1, !tbaa !34
  store i64 4, ptr %3, align 8
  br label %83

82:                                               ; preds = %52
  store i64 0, ptr %3, align 8
  br label %83

83:                                               ; preds = %82, %55, %32, %16, %8
  %84 = load i64, ptr %3, align 8
  ret i64 %84
}