; Function Attrs: mustprogress nofree norecurse nosync nounwind willreturn memory(argmem: write) uwtable
define internal fastcc noundef range(i64 0, 5) i64 @_ZN4LuauL6toUtf8EPcj(ptr noundef nonnull writeonly captures(none) %0, i32 noundef %1) unnamed_addr #11 {
  %3 = icmp ult i32 %1, 128
  br i1 %3, label %4, label %6

4:                                                ; preds = %2
  %5 = trunc nuw nsw i32 %1 to i8
  store i8 %5, ptr %0, align 1, !tbaa !15
  br label %51

6:                                                ; preds = %2
  %7 = icmp ult i32 %1, 2048
  br i1 %7, label %8, label %16

8:                                                ; preds = %6
  %9 = lshr i32 %1, 6
  %10 = trunc nuw i32 %9 to i8
  %11 = or disjoint i8 %10, -64
  store i8 %11, ptr %0, align 1, !tbaa !15
  %12 = trunc i32 %1 to i8
  %13 = and i8 %12, 63
  %14 = or disjoint i8 %13, -128
  %15 = getelementptr inbounds nuw i8, ptr %0, i64 1
  store i8 %14, ptr %15, align 1, !tbaa !15
  br label %51

16:                                               ; preds = %6
  %17 = icmp ult i32 %1, 65536
  br i1 %17, label %18, label %31

18:                                               ; preds = %16
  %19 = lshr i32 %1, 12
  %20 = trunc nuw i32 %19 to i8
  %21 = or disjoint i8 %20, -32
  store i8 %21, ptr %0, align 1, !tbaa !15
  %22 = lshr i32 %1, 6
  %23 = trunc i32 %22 to i8
  %24 = and i8 %23, 63
  %25 = or disjoint i8 %24, -128
  %26 = getelementptr inbounds nuw i8, ptr %0, i64 1
  store i8 %25, ptr %26, align 1, !tbaa !15
  %27 = trunc i32 %1 to i8
  %28 = and i8 %27, 63
  %29 = or disjoint i8 %28, -128
  %30 = getelementptr inbounds nuw i8, ptr %0, i64 2
  store i8 %29, ptr %30, align 1, !tbaa !15
  br label %51

31:                                               ; preds = %16
  %32 = icmp ult i32 %1, 1114112
  br i1 %32, label %33, label %51

33:                                               ; preds = %31
  %34 = lshr i32 %1, 18
  %35 = trunc nuw i32 %34 to i8
  %36 = or disjoint i8 %35, -16
  store i8 %36, ptr %0, align 1, !tbaa !15
  %37 = lshr i32 %1, 12
  %38 = trunc i32 %37 to i8
  %39 = and i8 %38, 63
  %40 = or disjoint i8 %39, -128
  %41 = getelementptr inbounds nuw i8, ptr %0, i64 1
  store i8 %40, ptr %41, align 1, !tbaa !15
  %42 = lshr i32 %1, 6
  %43 = trunc i32 %42 to i8
  %44 = and i8 %43, 63
  %45 = or disjoint i8 %44, -128
  %46 = getelementptr inbounds nuw i8, ptr %0, i64 2
  store i8 %45, ptr %46, align 1, !tbaa !15
  %47 = trunc i32 %1 to i8
  %48 = and i8 %47, 63
  %49 = or disjoint i8 %48, -128
  %50 = getelementptr inbounds nuw i8, ptr %0, i64 3
  store i8 %49, ptr %50, align 1, !tbaa !15
  br label %51

51:                                               ; preds = %31, %33, %18, %8, %4
  %.0 = phi i64 [ 1, %4 ], [ 2, %8 ], [ 3, %18 ], [ 4, %33 ], [ 0, %31 ]
  ret i64 %.0
}